; Function Attrs: mustprogress uwtable
define internal void @_ZN6duckdbL27IsHistogramOtherBinFunctionERNS_9DataChunkERNS_15ExpressionStateERNS_6VectorE(ptr noundef nonnull align 8 dereferenceable(64) %0, ptr nonnull readnone align 8 captures(none) %1, ptr noundef nonnull align 8 dereferenceable(104) %2) #3 personality ptr @__gxx_personality_v0 {
  %4 = alloca %"class.duckdb::Value", align 8
  %5 = alloca %"class.duckdb::Value", align 8
  %6 = alloca %"class.duckdb::Vector", align 8
  %7 = tail call noundef nonnull align 8 dereferenceable(104) ptr @_ZN6duckdb6vectorINS_6VectorELb1EEixEm(ptr noundef nonnull align 8 dereferenceable(24) %0, i64 noundef 0)
  %8 = getelementptr inbounds nuw i8, ptr %7, i64 8
  %9 = tail call fastcc noundef zeroext i1 @_ZN6duckdbL19SupportsOtherBucketERKNS_11LogicalTypeE(ptr noundef nonnull align 8 dereferenceable(24) %8)
  br i1 %9, label %14, label %10

10:                                               ; preds = %3
  call void @llvm.lifetime.start.p0(i64 64, ptr nonnull %4) #25
  call void @_ZN6duckdb5Value7BOOLEANEb(ptr dead_on_unwind nonnull writable sret(%"class.duckdb::Value") align 8 %4, i1 noundef zeroext false)
  invoke void @_ZN6duckdb6Vector9ReferenceERKNS_5ValueE(ptr noundef nonnull align 8 dereferenceable(104) %2, ptr noundef nonnull align 8 dereferenceable(64) %4)
          to label %11 unwind label %12

11:                                               ; preds = %10
  call void @_ZN6duckdb5ValueD1Ev(ptr noundef nonnull align 8 dereferenceable(64) %4) #25
  call void @llvm.lifetime.end.p0(i64 64, ptr nonnull %4) #25
  br label %21

12:                                               ; preds = %10
  %13 = landingpad { ptr, i32 }
          cleanup
  call void @_ZN6duckdb5ValueD1Ev(ptr noundef nonnull align 8 dereferenceable(64) %4) #25
  call void @llvm.lifetime.end.p0(i64 64, ptr nonnull %4) #25
  br label %27

14:                                               ; preds = %3
  call void @llvm.lifetime.start.p0(i64 64, ptr nonnull %5) #25
  call fastcc void @_ZN6duckdbL16OtherBucketValueERKNS_11LogicalTypeE(ptr dead_on_unwind noalias writable align 8 %5, ptr noundef nonnull align 8 dereferenceable(24) %8)
  call void @llvm.lifetime.start.p0(i64 104, ptr nonnull %6) #25
  invoke void @_ZN6duckdb6VectorC1ERKNS_5ValueE(ptr noundef nonnull align 8 dereferenceable(104) %6, ptr noundef nonnull align 8 dereferenceable(64) %5)
          to label %15 unwind label %22

15:                                               ; preds = %14
  %16 = invoke noundef nonnull align 8 dereferenceable(104) ptr @_ZN6duckdb6vectorINS_6VectorELb1EEixEm(ptr noundef nonnull align 8 dereferenceable(24) %0, i64 noundef 0)
          to label %17 unwind label %24

17:                                               ; preds = %15
  %18 = getelementptr inbounds nuw i8, ptr %0, i64 24
  %19 = load i64, ptr %18, align 8, !tbaa !85
  invoke void @_ZN6duckdb16VectorOperations15NotDistinctFromERNS_6VectorES2_S2_m(ptr noundef nonnull align 8 dereferenceable(104) %16, ptr noundef nonnull align 8 dereferenceable(104) %6, ptr noundef nonnull align 8 dereferenceable(104) %2, i64 noundef %19)
          to label %20 unwind label %24

20:                                               ; preds = %17
  call void @_ZN6duckdb6VectorD2Ev(ptr noundef nonnull align 8 dereferenceable(104) %6) #25
  call void @llvm.lifetime.end.p0(i64 104, ptr nonnull %6) #25
  call void @_ZN6duckdb5ValueD1Ev(ptr noundef nonnull align 8 dereferenceable(64) %5) #25
  call void @llvm.lifetime.end.p0(i64 64, ptr nonnull %5) #25
  br label %21

21:                                               ; preds = %20, %11
  ret void

22:                                               ; preds = %14
  %23 = landingpad { ptr, i32 }
          cleanup
  br label %26

24:                                               ; preds = %17, %15
  %25 = landingpad { ptr, i32 }
          cleanup
  call void @_ZN6duckdb6VectorD2Ev(ptr noundef nonnull align 8 dereferenceable(104) %6) #25
  br label %26

26:                                               ; preds = %24, %22
  %.pn = phi { ptr, i32 } [ %25, %24 ], [ %23, %22 ]
  call void @llvm.lifetime.end.p0(i64 104, ptr nonnull %6) #25
  call void @_ZN6duckdb5ValueD1Ev(ptr noundef nonnull align 8 dereferenceable(64) %5) #25
  call void @llvm.lifetime.end.p0(i64 64, ptr nonnull %5) #25
  br label %27

27:                                               ; preds = %26, %12
  %.pn.pn = phi { ptr, i32 } [ %.pn, %26 ], [ %13, %12 ]
  resume { ptr, i32 } %.pn.pn
}